; Function Attrs: mustprogress nounwind uwtable
define dso_local void @_ZN3ozz2io4FileD0Ev(ptr noundef nonnull align 8 dereferenceable(16) initializes((0, 8)) %0) unnamed_addr #5 align 2 personality ptr @__gxx_personality_v0 {
  store ptr getelementptr inbounds nuw inrange(-16, 64) (i8, ptr @_ZTVN3ozz2io4FileE, i64 16), ptr %0, align 8, !tbaa !4
  %2 = getelementptr inbounds nuw i8, ptr %0, i64 8
  %3 = load ptr, ptr %2, align 8, !tbaa !7
  %.not.i.i = icmp eq ptr %3, null
  br i1 %.not.i.i, label %_ZN3ozz2io4FileD2Ev.exit, label %4

4:                                                ; preds = %1
  %5 = tail call i32 @fclose(ptr noundef nonnull %3)
  br label %_ZN3ozz2io4FileD2Ev.exit

_ZN3ozz2io4FileD2Ev.exit:                         ; preds = %1, %4
  tail call void @_ZdlPvm(ptr noundef nonnull %0, i64 noundef 16) #18
  ret void
}